; Function Attrs: mustprogress nounwind uwtable
define internal fastcc noundef ptr @_ZL25getClobberingMemoryAccessRN4llvm9MemorySSAERNS_14BatchAAResultsERNS_21SinkAndHoistLICMFlagsEPNS_14MemoryUseOrDefE(ptr noundef nonnull align 8 dereferenceable(325) %0, ptr noundef nonnull align 8 dereferenceable(656) %1, ptr nocapture noundef nonnull align 4 dereferenceable(17) %2, ptr noundef %3) unnamed_addr #0 {
  %5 = getelementptr inbounds nuw i8, ptr %2, i64 4
  %6 = load i32, ptr %5, align 4
  %7 = getelementptr inbounds nuw i8, ptr %2, i64 8
  %8 = load i32, ptr %7, align 4
  %.not = icmp ult i32 %6, %8
  br i1 %.not, label %14, label %9

9:                                                ; preds = %4
  %10 = load i8, ptr %3, align 8
  %.not.i.i = icmp eq i8 %10, 26
  %spec.select.i.i.i.i.i = select i1 %.not.i.i, ptr %3, ptr null
  %11 = getelementptr inbounds i8, ptr %spec.select.i.i.i.i.i, i64 -32
  %12 = getelementptr inbounds i8, ptr %3, i64 -64
  %.0.i.i.i = select i1 %.not.i.i, ptr %11, ptr %12
  %13 = load ptr, ptr %.0.i.i.i, align 8
  br label %22

14:                                               ; preds = %4
  %15 = tail call noundef ptr @_ZN4llvm9MemorySSA17getSkipSelfWalkerEv(ptr noundef nonnull align 8 dereferenceable(325) %0) #21
  %16 = load ptr, ptr %15, align 8
  %17 = getelementptr inbounds i8, ptr %16, i64 16
  %18 = load ptr, ptr %17, align 8
  %19 = tail call noundef ptr %18(ptr noundef nonnull align 8 dereferenceable(16) %15, ptr noundef %3, ptr noundef nonnull align 8 dereferenceable(656) %1) #21
  %20 = load i32, ptr %5, align 4
  %21 = add i32 %20, 1
  store i32 %21, ptr %5, align 4
  br label %22

22:                                               ; preds = %14, %9
  %.0 = phi ptr [ %13, %9 ], [ %19, %14 ]
  ret ptr %.0
}